target datalayout = "e-m:e-p270:32:32-p271:32:32-p272:64:64-i64:64-i128:128-f80:128-n8:16:32:64-S128"
target triple = "x86_64-pc-linux-gnu"

%"class.cv::(anonymous namespace)::ufixedpoint32" = type { i32 }
%"class.cv::(anonymous namespace)::ufixedpoint64" = type { i64 }

; Function Attrs: inlinehint mustprogress nounwind uwtable
define linkonce_odr noundef nonnull align 8 dereferenceable(8) ptr @_ZSt3minImERKT_S2_S2_(ptr noundef nonnull align 8 dereferenceable(8) %0, ptr noundef nonnull align 8 dereferenceable(8) %1) #9 comdat {
  %3 = alloca ptr, align 8
  %4 = alloca ptr, align 8
  %5 = alloca ptr, align 8
  store ptr %0, ptr %4, align 8, !tbaa !136
  store ptr %1, ptr %5, align 8, !tbaa !136
  %6 = load ptr, ptr %5, align 8, !tbaa !136
  %7 = load i64, ptr %6, align 8, !tbaa !34
  %8 = load ptr, ptr %4, align 8, !tbaa !136
  %9 = load i64, ptr %8, align 8, !tbaa !34
  %10 = icmp ult i64 %7, %9
  br i1 %10, label %11, label %13

11:                                               ; preds = %2
  %12 = load ptr, ptr %5, align 8, !tbaa !136
  store ptr %12, ptr %3, align 8
  br label %15

13:                                               ; preds = %2
  %14 = load ptr, ptr %4, align 8, !tbaa !136
  store ptr %14, ptr %3, align 8
  br label %15

15:                                               ; preds = %13, %11
  %16 = load ptr, ptr %3, align 8
  ret ptr %16
}

; Function Attrs: inlinehint mustprogress nounwind uwtable
define internal noundef zeroext i16 @_ZN2cvL13saturate_castItEET_m(i64 noundef %0) #9 {
  %2 = alloca i64, align 8
  %3 = alloca i64, align 8
  store i64 %0, ptr %2, align 8, !tbaa !34
  call void @llvm.lifetime.start.p0(i64 8, ptr %3) #3
  store i64 65535, ptr %3, align 8, !tbaa !34
  %4 = call noundef nonnull align 8 dereferenceable(8) ptr @_ZSt3minImERKT_S2_S2_(ptr noundef nonnull align 8 dereferenceable(8) %2, ptr noundef nonnull align 8 dereferenceable(8) %3)
  %5 = load i64, ptr %4, align 8, !tbaa !34
  %6 = trunc i64 %5 to i16
  call void @llvm.lifetime.end.p0(i64 8, ptr %3) #3
  ret i16 %6
}

; Function Attrs: alwaysinline mustprogress nounwind uwtable
define internal noundef i64 @_ZN2cv12_GLOBAL__N_113ufixedpoint6410fixedroundERKm(ptr noundef nonnull align 8 dereferenceable(8) %0) #17 align 2 {
  %2 = alloca ptr, align 8
  store ptr %0, ptr %2, align 8, !tbaa !136
  %3 = load ptr, ptr %2, align 8, !tbaa !136
  %4 = load i64, ptr %3, align 8, !tbaa !34
  %5 = add i64 %4, 2147483648
  ret i64 %5
}

; Function Attrs: alwaysinline mustprogress uwtable
define internal noundef zeroext i16 @_ZNK2cv12_GLOBAL__N_113ufixedpoint6413saturate_castItEET_v(ptr noundef nonnull align 8 dereferenceable(8) %0) #19 align 2 {
  %2 = alloca ptr, align 8
  store ptr %0, ptr %2, align 8, !tbaa !484
  %3 = load ptr, ptr %2, align 8
  %4 = getelementptr inbounds nuw %"class.cv::(anonymous namespace)::ufixedpoint64", ptr %3, i32 0, i32 0
  %5 = call noundef i64 @_ZN2cv12_GLOBAL__N_113ufixedpoint6410fixedroundERKm(ptr noundef nonnull align 8 dereferenceable(8) %4)
  %6 = lshr i64 %5, 32
  %7 = call noundef zeroext i16 @_ZN2cvL13saturate_castItEET_m(i64 noundef %6)
  ret i16 %7
}

; Function Attrs: mustprogress nounwind uwtable
define internal void @_ZN2cv12_GLOBAL__N_113ufixedpoint64C2Em(ptr noundef nonnull align 8 dereferenceable(8) %0, i64 noundef %1) unnamed_addr #7 align 2 {
  %3 = alloca ptr, align 8
  %4 = alloca i64, align 8
  store ptr %0, ptr %3, align 8, !tbaa !484
  store i64 %1, ptr %4, align 8, !tbaa !34
  %5 = load ptr, ptr %3, align 8
  %6 = getelementptr inbounds nuw %"class.cv::(anonymous namespace)::ufixedpoint64", ptr %5, i32 0, i32 0
  %7 = load i64, ptr %4, align 8, !tbaa !34
  store i64 %7, ptr %6, align 8, !tbaa !486
  ret void
}

; Function Attrs: alwaysinline mustprogress uwtable
define internal noundef zeroext i16 @_ZNK2cv12_GLOBAL__N_113ufixedpoint64cvtEv(ptr noundef nonnull align 8 dereferenceable(8) %0) #19 align 2 {
  %2 = alloca ptr, align 8
  store ptr %0, ptr %2, align 8, !tbaa !484
  %3 = load ptr, ptr %2, align 8
  %4 = call noundef zeroext i16 @_ZNK2cv12_GLOBAL__N_113ufixedpoint6413saturate_castItEET_v(ptr noundef nonnull align 8 dereferenceable(8) %3)
  ret i16 %4
}

; Function Attrs: alwaysinline mustprogress nounwind uwtable
define internal noundef nonnull align 8 dereferenceable(8) ptr @_ZN2cv12_GLOBAL__N_113ufixedpoint64aSERKS1_(ptr noundef nonnull align 8 dereferenceable(8) %0, ptr noundef nonnull align 8 dereferenceable(8) %1) #17 align 2 {
  %3 = alloca ptr, align 8
  %4 = alloca ptr, align 8
  store ptr %0, ptr %3, align 8, !tbaa !484
  store ptr %1, ptr %4, align 8, !tbaa !484
  %5 = load ptr, ptr %3, align 8
  %6 = load ptr, ptr %4, align 8, !tbaa !484
  %7 = getelementptr inbounds nuw %"class.cv::(anonymous namespace)::ufixedpoint64", ptr %6, i32 0, i32 0
  %8 = load i64, ptr %7, align 8, !tbaa !486
  %9 = getelementptr inbounds nuw %"class.cv::(anonymous namespace)::ufixedpoint64", ptr %5, i32 0, i32 0
  store i64 %8, ptr %9, align 8, !tbaa !486
  ret ptr %5
}

; Function Attrs: alwaysinline mustprogress uwtable
define internal void @_ZNK2cv12_GLOBAL__N_113ufixedpoint64plERKS1_(ptr dead_on_unwind noalias writable sret(%"class.cv::(anonymous namespace)::ufixedpoint64") align 8 %0, ptr noundef nonnull align 8 dereferenceable(8) %1, ptr noundef nonnull align 8 dereferenceable(8) %2) #19 align 2 {
  %4 = alloca ptr, align 8
  %5 = alloca ptr, align 8
  %6 = alloca ptr, align 8
  %7 = alloca i64, align 8
  store ptr %0, ptr %4, align 8
  store ptr %1, ptr %5, align 8, !tbaa !484
  store ptr %2, ptr %6, align 8, !tbaa !484
  %8 = load ptr, ptr %5, align 8
  call void @llvm.lifetime.start.p0(i64 8, ptr %7) #3
  %9 = getelementptr inbounds nuw %"class.cv::(anonymous namespace)::ufixedpoint64", ptr %8, i32 0, i32 0
  %10 = load i64, ptr %9, align 8, !tbaa !486
  %11 = load ptr, ptr %6, align 8, !tbaa !484
  %12 = getelementptr inbounds nuw %"class.cv::(anonymous namespace)::ufixedpoint64", ptr %11, i32 0, i32 0
  %13 = load i64, ptr %12, align 8, !tbaa !486
  %14 = add i64 %10, %13
  store i64 %14, ptr %7, align 8, !tbaa !34
  %15 = getelementptr inbounds nuw %"class.cv::(anonymous namespace)::ufixedpoint64", ptr %8, i32 0, i32 0
  %16 = load i64, ptr %15, align 8, !tbaa !486
  %17 = load i64, ptr %7, align 8, !tbaa !34
  %18 = icmp ugt i64 %16, %17
  br i1 %18, label %19, label %20

19:                                               ; preds = %3
  br label %22

20:                                               ; preds = %3
  %21 = load i64, ptr %7, align 8, !tbaa !34
  br label %22

22:                                               ; preds = %20, %19
  %23 = phi i64 [ -1, %19 ], [ %21, %20 ]
  call void @_ZN2cv12_GLOBAL__N_113ufixedpoint64C2Em(ptr noundef nonnull align 8 dereferenceable(8) %0, i64 noundef %23)
  call void @llvm.lifetime.end.p0(i64 8, ptr %7) #3
  ret void
}

; Function Attrs: alwaysinline mustprogress uwtable
define internal void @_ZNK2cv12_GLOBAL__N_113ufixedpoint32mlERKS1_(ptr dead_on_unwind noalias writable sret(%"class.cv::(anonymous namespace)::ufixedpoint64") align 8 %0, ptr noundef nonnull align 4 dereferenceable(4) %1, ptr noundef nonnull align 4 dereferenceable(4) %2) #19 align 2 {
  %4 = alloca ptr, align 8
  %5 = alloca ptr, align 8
  %6 = alloca ptr, align 8
  store ptr %0, ptr %4, align 8
  store ptr %1, ptr %5, align 8, !tbaa !343
  store ptr %2, ptr %6, align 8, !tbaa !343
  %7 = load ptr, ptr %5, align 8
  %8 = getelementptr inbounds nuw %"class.cv::(anonymous namespace)::ufixedpoint32", ptr %7, i32 0, i32 0
  %9 = load i32, ptr %8, align 4, !tbaa !344
  %10 = zext i32 %9 to i64
  %11 = load ptr, ptr %6, align 8, !tbaa !343
  %12 = getelementptr inbounds nuw %"class.cv::(anonymous namespace)::ufixedpoint32", ptr %11, i32 0, i32 0
  %13 = load i32, ptr %12, align 4, !tbaa !344
  %14 = zext i32 %13 to i64
  %15 = mul i64 %10, %14
  call void @_ZN2cv12_GLOBAL__N_113ufixedpoint64C2Em(ptr noundef nonnull align 8 dereferenceable(8) %0, i64 noundef %15)
  ret void
}

; Function Attrs: mustprogress uwtable
define internal void @_ZN2cv12cpu_baseline12_GLOBAL__N_111vlineSmoothItNS_12_GLOBAL__N_113ufixedpoint32EEEvPKPKT0_S7_iPT_i(ptr noundef %0, ptr noundef %1, i32 noundef %2, ptr noundef %3, i32 noundef %4) #4 {
  %6 = alloca ptr, align 8
  %7 = alloca ptr, align 8
  %8 = alloca i32, align 4
  %9 = alloca ptr, align 8
  %10 = alloca i32, align 4
  %11 = alloca i32, align 4
  %12 = alloca i32, align 4
  %13 = alloca %"class.cv::(anonymous namespace)::ufixedpoint64", align 8
  %14 = alloca i32, align 4
  %15 = alloca %"class.cv::(anonymous namespace)::ufixedpoint64", align 8
  %16 = alloca %"class.cv::(anonymous namespace)::ufixedpoint64", align 8
  store ptr %0, ptr %6, align 8, !tbaa !452
  store ptr %1, ptr %7, align 8, !tbaa !343
  store i32 %2, ptr %8, align 4, !tbaa !10
  store ptr %3, ptr %9, align 8, !tbaa !8
  store i32 %4, ptr %10, align 4, !tbaa !10
  call void @llvm.lifetime.start.p0(i64 4, ptr %11) #3
  store i32 0, ptr %11, align 4, !tbaa !10
  br label %17

17:                                               ; preds = %59, %5
  %18 = load i32, ptr %11, align 4, !tbaa !10
  %19 = load i32, ptr %10, align 4, !tbaa !10
  %20 = icmp slt i32 %18, %19
  br i1 %20, label %22, label %21

21:                                               ; preds = %17
  store i32 2, ptr %12, align 4
  call void @llvm.lifetime.end.p0(i64 4, ptr %11) #3
  br label %62

22:                                               ; preds = %17
  call void @llvm.lifetime.start.p0(i64 8, ptr %13) #3
  %23 = load ptr, ptr %7, align 8, !tbaa !343
  %24 = getelementptr inbounds %"class.cv::(anonymous namespace)::ufixedpoint32", ptr %23, i64 0
  %25 = load ptr, ptr %6, align 8, !tbaa !452
  %26 = getelementptr inbounds ptr, ptr %25, i64 0
  %27 = load ptr, ptr %26, align 8, !tbaa !343
  %28 = load i32, ptr %11, align 4, !tbaa !10
  %29 = sext i32 %28 to i64
  %30 = getelementptr inbounds %"class.cv::(anonymous namespace)::ufixedpoint32", ptr %27, i64 %29
  call void @_ZNK2cv12_GLOBAL__N_113ufixedpoint32mlERKS1_(ptr dead_on_unwind writable sret(%"class.cv::(anonymous namespace)::ufixedpoint64") align 8 %13, ptr noundef nonnull align 4 dereferenceable(4) %24, ptr noundef nonnull align 4 dereferenceable(4) %30)
  call void @llvm.lifetime.start.p0(i64 4, ptr %14) #3
  store i32 1, ptr %14, align 4, !tbaa !10
  br label %31

31:                                               ; preds = %50, %22
  %32 = load i32, ptr %14, align 4, !tbaa !10
  %33 = load i32, ptr %8, align 4, !tbaa !10
  %34 = icmp slt i32 %32, %33
  br i1 %34, label %36, label %35

35:                                               ; preds = %31
  store i32 5, ptr %12, align 4
  call void @llvm.lifetime.end.p0(i64 4, ptr %14) #3
  br label %53

36:                                               ; preds = %31
  call void @llvm.lifetime.start.p0(i64 8, ptr %15) #3
  call void @llvm.lifetime.start.p0(i64 8, ptr %16) #3
  %37 = load ptr, ptr %7, align 8, !tbaa !343
  %38 = load i32, ptr %14, align 4, !tbaa !10
  %39 = sext i32 %38 to i64
  %40 = getelementptr inbounds %"class.cv::(anonymous namespace)::ufixedpoint32", ptr %37, i64 %39
  %41 = load ptr, ptr %6, align 8, !tbaa !452
  %42 = load i32, ptr %14, align 4, !tbaa !10
  %43 = sext i32 %42 to i64
  %44 = getelementptr inbounds ptr, ptr %41, i64 %43
  %45 = load ptr, ptr %44, align 8, !tbaa !343
  %46 = load i32, ptr %11, align 4, !tbaa !10
  %47 = sext i32 %46 to i64
  %48 = getelementptr inbounds %"class.cv::(anonymous namespace)::ufixedpoint32", ptr %45, i64 %47
  call void @_ZNK2cv12_GLOBAL__N_113ufixedpoint32mlERKS1_(ptr dead_on_unwind writable sret(%"class.cv::(anonymous namespace)::ufixedpoint64") align 8 %16, ptr noundef nonnull align 4 dereferenceable(4) %40, ptr noundef nonnull align 4 dereferenceable(4) %48)
  call void @_ZNK2cv12_GLOBAL__N_113ufixedpoint64plERKS1_(ptr dead_on_unwind writable sret(%"class.cv::(anonymous namespace)::ufixedpoint64") align 8 %15, ptr noundef nonnull align 8 dereferenceable(8) %13, ptr noundef nonnull align 8 dereferenceable(8) %16)
  %49 = call noundef nonnull align 8 dereferenceable(8) ptr @_ZN2cv12_GLOBAL__N_113ufixedpoint64aSERKS1_(ptr noundef nonnull align 8 dereferenceable(8) %13, ptr noundef nonnull align 8 dereferenceable(8) %15)
  call void @llvm.lifetime.end.p0(i64 8, ptr %16) #3
  call void @llvm.lifetime.end.p0(i64 8, ptr %15) #3
  br label %50

50:                                               ; preds = %36
  %51 = load i32, ptr %14, align 4, !tbaa !10
  %52 = add nsw i32 %51, 1
  store i32 %52, ptr %14, align 4, !tbaa !10
  br label %31, !llvm.loop !462

53:                                               ; preds = %35
  %54 = call noundef zeroext i16 @_ZNK2cv12_GLOBAL__N_113ufixedpoint64cvtEv(ptr noundef nonnull align 8 dereferenceable(8) %13)
  %55 = load ptr, ptr %9, align 8, !tbaa !8
  %56 = load i32, ptr %11, align 4, !tbaa !10
  %57 = sext i32 %56 to i64
  %58 = getelementptr inbounds i16, ptr %55, i64 %57
  store i16 %54, ptr %58, align 2, !tbaa !236
  call void @llvm.lifetime.end.p0(i64 8, ptr %13) #3
  br label %59

59:                                               ; preds = %53
  %60 = load i32, ptr %11, align 4, !tbaa !10
  %61 = add nsw i32 %60, 1
  store i32 %61, ptr %11, align 4, !tbaa !10
  br label %17, !llvm.loop !463

62:                                               ; preds = %21
  ret void
}