; Function Attrs: mustprogress nofree norecurse nosync nounwind memory(read, argmem: readwrite, inaccessiblemem: none) uwtable
define internal void @_ZN2cv12cpu_baseline12_GLOBAL__N_111vlineSmoothItNS_12_GLOBAL__N_113ufixedpoint32EEEvPKPKT0_S7_iPT_i(ptr noundef readonly captures(none) %0, ptr noundef readonly captures(none) %1, i32 noundef %2, ptr noundef writeonly captures(none) %3, i32 noundef %4) #17 {
  %6 = icmp sgt i32 %4, 0
  br i1 %6, label %.lr.ph23, label %._crit_edge24

.lr.ph23:                                         ; preds = %5
  %7 = load ptr, ptr %0, align 8, !tbaa !1818
  %8 = load i32, ptr %1, align 4, !tbaa !73, !noalias !1860
  %9 = zext i32 %8 to i64
  %10 = icmp sgt i32 %2, 1
  %wide.trip.count35 = zext nneg i32 %4 to i64
  br i1 %10, label %.lr.ph.us.preheader, label %.lr.ph23.split

.lr.ph.us.preheader:                              ; preds = %.lr.ph23
  %wide.trip.count30 = zext nneg i32 %2 to i64
  br label %.lr.ph.us

.lr.ph.us:                                        ; preds = %.lr.ph.us.preheader, %._crit_edge.us
  %indvars.iv32 = phi i64 [ 0, %.lr.ph.us.preheader ], [ %indvars.iv.next33, %._crit_edge.us ]
  %11 = getelementptr inbounds nuw %"class.cv::(anonymous namespace)::ufixedpoint32", ptr %7, i64 %indvars.iv32
  %12 = load i32, ptr %11, align 4, !tbaa !73, !noalias !1860
  %13 = zext i32 %12 to i64
  %14 = mul nuw i64 %13, %9
  br label %15

15:                                               ; preds = %.lr.ph.us, %15
  %indvars.iv27 = phi i64 [ 1, %.lr.ph.us ], [ %indvars.iv.next28, %15 ]
  %.sroa.017.019.us = phi i64 [ %14, %.lr.ph.us ], [ %25, %15 ]
  %16 = getelementptr inbounds nuw %"class.cv::(anonymous namespace)::ufixedpoint32", ptr %1, i64 %indvars.iv27
  %17 = getelementptr inbounds nuw ptr, ptr %0, i64 %indvars.iv27
  %18 = load ptr, ptr %17, align 8, !tbaa !1818
  %19 = getelementptr inbounds nuw %"class.cv::(anonymous namespace)::ufixedpoint32", ptr %18, i64 %indvars.iv32
  %20 = load i32, ptr %16, align 4, !tbaa !73, !noalias !1863
  %21 = zext i32 %20 to i64
  %22 = load i32, ptr %19, align 4, !tbaa !73, !noalias !1863
  %23 = zext i32 %22 to i64
  %24 = mul nuw i64 %23, %21
  %25 = tail call i64 @llvm.uadd.sat.i64(i64 %.sroa.017.019.us, i64 %24)
  %indvars.iv.next28 = add nuw nsw i64 %indvars.iv27, 1
  %exitcond31.not = icmp eq i64 %indvars.iv.next28, %wide.trip.count30
  br i1 %exitcond31.not, label %._crit_edge.us, label %15, !llvm.loop !1866

._crit_edge.us:                                   ; preds = %15
  %26 = add i64 %25, 2147483648
  %27 = lshr i64 %26, 32
  %.sroa.speculated.i.us = tail call i64 @llvm.umin.i64(i64 range(i64 0, 4294967296) %27, i64 65535)
  %28 = trunc nuw i64 %.sroa.speculated.i.us to i16
  %29 = getelementptr inbounds nuw i16, ptr %3, i64 %indvars.iv32
  store i16 %28, ptr %29, align 2, !tbaa !400
  %indvars.iv.next33 = add nuw nsw i64 %indvars.iv32, 1
  %exitcond36.not = icmp eq i64 %indvars.iv.next33, %wide.trip.count35
  br i1 %exitcond36.not, label %._crit_edge24, label %.lr.ph.us, !llvm.loop !1867

._crit_edge24:                                    ; preds = %.lr.ph23.split, %._crit_edge.us, %5
  ret void

.lr.ph23.split:                                   ; preds = %.lr.ph23, %.lr.ph23.split
  %indvars.iv = phi i64 [ %indvars.iv.next, %.lr.ph23.split ], [ 0, %.lr.ph23 ]
  %30 = getelementptr inbounds nuw %"class.cv::(anonymous namespace)::ufixedpoint32", ptr %7, i64 %indvars.iv
  %31 = load i32, ptr %30, align 4, !tbaa !73, !noalias !1860
  %32 = zext i32 %31 to i64
  %33 = mul nuw i64 %32, %9
  %34 = add nuw i64 %33, 2147483648
  %35 = lshr i64 %34, 32
  %.sroa.speculated.i = tail call i64 @llvm.umin.i64(i64 range(i64 0, 4294967296) %35, i64 65535)
  %36 = trunc nuw i64 %.sroa.speculated.i to i16
  %37 = getelementptr inbounds nuw i16, ptr %3, i64 %indvars.iv
  store i16 %36, ptr %37, align 2, !tbaa !400
  %indvars.iv.next = add nuw nsw i64 %indvars.iv, 1
  %exitcond.not = icmp eq i64 %indvars.iv.next, %wide.trip.count35
  br i1 %exitcond.not, label %._crit_edge24, label %.lr.ph23.split, !llvm.loop !1867
}